; Function Attrs: mustprogress uwtable
define hidden void @_ZN19OpenColorIO_v2_4dev27GradingPrimaryTransformImpl8setValueERKNS_14GradingPrimaryE(ptr nocapture noundef nonnull readonly align 8 dereferenceable(200) %this, ptr noundef nonnull align 8 dereferenceable(272) %values) unnamed_addr #0 align 2 {
entry:
  %m_value.i = getelementptr inbounds i8, ptr %this, i64 184
  %0 = load ptr, ptr %m_value.i, align 8
  %vtable.i = load ptr, ptr %0, align 8
  %vfn.i = getelementptr inbounds i8, ptr %vtable.i, i64 32
  %1 = load ptr, ptr %vfn.i, align 8
  tail call void %1(ptr noundef nonnull align 8 dereferenceable(392) %0, ptr noundef nonnull align 8 dereferenceable(272) %values)
  ret void
}